target datalayout = "e-m:e-p270:32:32-p271:32:32-p272:64:64-i64:64-i128:128-f80:128-n8:16:32:64-S128"
target triple = "x86_64-pc-linux-gnu"

%struct.SurfaceDataRasInfo = type { %struct.SurfaceDataBounds, ptr, i32, i32, i32, i32, ptr, ptr, ptr, ptr, ptr, ptr, i32, %union.anon.0 }
%struct.SurfaceDataBounds = type { i32, i32, i32, i32 }
%union.anon.0 = type { ptr, [56 x i8] }

; Function Attrs: nounwind uwtable
define hidden void @Any3ByteSetRect(ptr noundef %0, i32 noundef %1, i32 noundef %2, i32 noundef %3, i32 noundef %4, i32 noundef %5, ptr noundef %6, ptr noundef %7) #0 {
  %9 = alloca ptr, align 8
  %10 = alloca i32, align 4
  %11 = alloca i32, align 4
  %12 = alloca i32, align 4
  %13 = alloca i32, align 4
  %14 = alloca i32, align 4
  %15 = alloca ptr, align 8
  %16 = alloca ptr, align 8
  %17 = alloca i8, align 1
  %18 = alloca i8, align 1
  %19 = alloca i8, align 1
  %20 = alloca ptr, align 8
  %21 = alloca i32, align 4
  %22 = alloca i32, align 4
  %23 = alloca i32, align 4
  %24 = alloca i32, align 4
  store ptr %0, ptr %9, align 8
  store i32 %1, ptr %10, align 4
  store i32 %2, ptr %11, align 4
  store i32 %3, ptr %12, align 4
  store i32 %4, ptr %13, align 4
  store i32 %5, ptr %14, align 4
  store ptr %6, ptr %15, align 8
  store ptr %7, ptr %16, align 8
  %25 = load ptr, ptr %9, align 8
  %26 = getelementptr inbounds %struct.SurfaceDataRasInfo, ptr %25, i32 0, i32 4
  %27 = load i32, ptr %26, align 8
  store i32 %27, ptr %21, align 4
  %28 = load i32, ptr %13, align 4
  %29 = load i32, ptr %11, align 4
  %30 = sub nsw i32 %28, %29
  store i32 %30, ptr %22, align 4
  %31 = load i32, ptr %12, align 4
  %32 = load i32, ptr %10, align 4
  %33 = sub nsw i32 %31, %32
  store i32 %33, ptr %23, align 4
  %34 = load ptr, ptr %9, align 8
  %35 = getelementptr inbounds %struct.SurfaceDataRasInfo, ptr %34, i32 0, i32 1
  %36 = load ptr, ptr %35, align 8
  %37 = ptrtoint ptr %36 to i64
  %38 = load i32, ptr %11, align 4
  %39 = sext i32 %38 to i64
  %40 = load i32, ptr %21, align 4
  %41 = sext i32 %40 to i64
  %42 = mul nsw i64 %39, %41
  %43 = load i32, ptr %10, align 4
  %44 = sext i32 %43 to i64
  %45 = mul nsw i64 %44, 3
  %46 = add nsw i64 %42, %45
  %47 = add nsw i64 %37, %46
  %48 = inttoptr i64 %47 to ptr
  store ptr %48, ptr %20, align 8
  br label %49

49:                                               ; preds = %8
  %50 = load i32, ptr %14, align 4
  %51 = trunc i32 %50 to i8
  store i8 %51, ptr %17, align 1
  %52 = load i32, ptr %14, align 4
  %53 = ashr i32 %52, 8
  %54 = trunc i32 %53 to i8
  store i8 %54, ptr %18, align 1
  %55 = load i32, ptr %14, align 4
  %56 = ashr i32 %55, 16
  %57 = trunc i32 %56 to i8
  store i8 %57, ptr %19, align 1
  br label %58

58:                                               ; preds = %49
  br label %59

59:                                               ; preds = %96, %58
  store i32 0, ptr %24, align 4
  br label %60

60:                                               ; preds = %84, %59
  br label %61

61:                                               ; preds = %60
  %62 = load i8, ptr %17, align 1
  %63 = load ptr, ptr %20, align 8
  %64 = load i32, ptr %24, align 4
  %65 = mul i32 3, %64
  %66 = add i32 %65, 0
  %67 = zext i32 %66 to i64
  %68 = getelementptr inbounds i8, ptr %63, i64 %67
  store i8 %62, ptr %68, align 1
  %69 = load i8, ptr %18, align 1
  %70 = load ptr, ptr %20, align 8
  %71 = load i32, ptr %24, align 4
  %72 = mul i32 3, %71
  %73 = add i32 %72, 1
  %74 = zext i32 %73 to i64
  %75 = getelementptr inbounds i8, ptr %70, i64 %74
  store i8 %69, ptr %75, align 1
  %76 = load i8, ptr %19, align 1
  %77 = load ptr, ptr %20, align 8
  %78 = load i32, ptr %24, align 4
  %79 = mul i32 3, %78
  %80 = add i32 %79, 2
  %81 = zext i32 %80 to i64
  %82 = getelementptr inbounds i8, ptr %77, i64 %81
  store i8 %76, ptr %82, align 1
  br label %83

83:                                               ; preds = %61
  br label %84

84:                                               ; preds = %83
  %85 = load i32, ptr %24, align 4
  %86 = add i32 %85, 1
  store i32 %86, ptr %24, align 4
  %87 = load i32, ptr %23, align 4
  %88 = icmp ult i32 %86, %87
  br i1 %88, label %60, label %89, !llvm.loop !6

89:                                               ; preds = %84
  %90 = load ptr, ptr %20, align 8
  %91 = ptrtoint ptr %90 to i64
  %92 = load i32, ptr %21, align 4
  %93 = sext i32 %92 to i64
  %94 = add nsw i64 %91, %93
  %95 = inttoptr i64 %94 to ptr
  store ptr %95, ptr %20, align 8
  br label %96

96:                                               ; preds = %89
  %97 = load i32, ptr %22, align 4
  %98 = add i32 %97, -1
  store i32 %98, ptr %22, align 4
  %99 = icmp ugt i32 %98, 0
  br i1 %99, label %59, label %100, !llvm.loop !8

100:                                              ; preds = %96
  ret void
}