; Function Attrs: nofree norecurse nosync nounwind memory(write, argmem: readwrite, inaccessiblemem: none) uwtable
define hidden void @Any3ByteSetRect(ptr nocapture noundef readonly %0, i32 noundef %1, i32 noundef %2, i32 noundef %3, i32 noundef %4, i32 noundef %5, ptr nocapture readnone %6, ptr nocapture readnone %7) #0 {
  %9 = getelementptr inbounds i8, ptr %0, i64 32
  %10 = load i32, ptr %9, align 8
  %11 = sub nsw i32 %4, %2
  %12 = sub i32 %3, %1
  %13 = getelementptr inbounds i8, ptr %0, i64 16
  %14 = load ptr, ptr %13, align 8
  %15 = ptrtoint ptr %14 to i64
  %16 = sext i32 %2 to i64
  %17 = sext i32 %10 to i64
  %18 = mul nsw i64 %17, %16
  %19 = sext i32 %1 to i64
  %20 = mul nsw i64 %19, 3
  %21 = add nsw i64 %18, %20
  %22 = add nsw i64 %21, %15
  %23 = trunc i32 %5 to i8
  %24 = lshr i32 %5, 8
  %25 = trunc i32 %24 to i8
  %26 = lshr i32 %5, 16
  %27 = trunc i32 %26 to i8
  %umax = tail call i32 @llvm.umax.i32(i32 %12, i32 1)
  %wide.trip.count = zext i32 %umax to i64
  br label %28

28:                                               ; preds = %40, %8
  %.026 = phi i32 [ %11, %8 ], [ %42, %40 ]
  %.025.in = phi i64 [ %22, %8 ], [ %41, %40 ]
  %.025 = inttoptr i64 %.025.in to ptr
  br label %29

29:                                               ; preds = %29, %28
  %indvars.iv = phi i64 [ %indvars.iv.next, %29 ], [ 0, %28 ]
  %30 = trunc nuw i64 %indvars.iv to i32
  %31 = mul i32 %30, 3
  %32 = zext i32 %31 to i64
  %33 = getelementptr inbounds i8, ptr %.025, i64 %32
  store i8 %23, ptr %33, align 1
  %34 = add i32 %31, 1
  %35 = zext i32 %34 to i64
  %36 = getelementptr inbounds i8, ptr %.025, i64 %35
  store i8 %25, ptr %36, align 1
  %37 = add i32 %31, 2
  %38 = zext i32 %37 to i64
  %39 = getelementptr inbounds i8, ptr %.025, i64 %38
  store i8 %27, ptr %39, align 1
  %indvars.iv.next = add nuw nsw i64 %indvars.iv, 1
  %exitcond.not = icmp eq i64 %indvars.iv.next, %wide.trip.count
  br i1 %exitcond.not, label %40, label %29, !llvm.loop !6

40:                                               ; preds = %29
  %41 = add nsw i64 %.025.in, %17
  %42 = add i32 %.026, -1
  %.not = icmp eq i32 %42, 0
  br i1 %.not, label %43, label %28, !llvm.loop !8

43:                                               ; preds = %40
  ret void
}